; Function Attrs: nounwind uwtable
define noundef ptr @l_Lean_Compiler_LCNF_CacheExtension_register___at_Lean_Compiler_LCNF_initFn____x40_Lean_Compiler_LCNF_AuxDeclCache___hyg_3____spec__1___lambda__1(ptr noundef %0, ptr noundef %1, ptr noundef readonly captures(none) %2, ptr noundef %3, ptr readnone captures(none) %4, ptr noundef %5) local_unnamed_addr #1 {
  %7 = getelementptr inbounds nuw i8, ptr %3, i64 8
  %8 = load ptr, ptr %7, align 8, !tbaa !9
  %9 = ptrtoint ptr %8 to i64
  %10 = and i64 %9, 1
  %.not = icmp eq i64 %10, 0
  br i1 %.not, label %11, label %lean_inc.exit25

11:                                               ; preds = %6
  %.val.i = load i32, ptr %8, align 4, !tbaa !4
  %12 = icmp sgt i32 %.val.i, 0
  br i1 %12, label %13, label %15, !prof !11

13:                                               ; preds = %11
  %14 = add nuw i32 %.val.i, 1
  store i32 %14, ptr %8, align 4, !tbaa !4
  br label %lean_inc.exit25

15:                                               ; preds = %11
  %.not.i30 = icmp eq i32 %.val.i, 0
  br i1 %.not.i30, label %lean_inc.exit25, label %16

16:                                               ; preds = %15
  tail call void @lean_inc_ref_cold(ptr noundef nonnull %8) #4
  br label %lean_inc.exit25

lean_inc.exit25:                                  ; preds = %16, %15, %13, %6
  %17 = tail call ptr @l_List_lengthTRAux___rarg(ptr noundef %8, ptr noundef nonnull inttoptr (i64 1 to ptr)) #4
  %18 = getelementptr inbounds nuw i8, ptr %2, i64 8
  %19 = load ptr, ptr %18, align 8, !tbaa !9
  %20 = tail call ptr @l_List_lengthTRAux___rarg(ptr noundef %19, ptr noundef nonnull inttoptr (i64 1 to ptr)) #4
  %21 = ptrtoint ptr %17 to i64
  %22 = and i64 %21, 1
  %.not34 = icmp eq i64 %22, 0
  %.pre39 = ptrtoint ptr %20 to i64
  %.pre = and i64 %.pre39, 1
  %23 = icmp eq i64 %.pre, 0
  br i1 %.not34, label %lean_nat_sub.exit, label %24, !prof !14

24:                                               ; preds = %lean_inc.exit25
  br i1 %23, label %lean_nat_sub.exit.thread43, label %26, !prof !14

lean_nat_sub.exit.thread43:                       ; preds = %24
  %25 = tail call ptr @lean_nat_big_sub(ptr noundef %17, ptr noundef %20) #4
  br label %36

26:                                               ; preds = %24
  %27 = lshr i64 %21, 1
  %28 = lshr i64 %.pre39, 1
  %29 = icmp samesign ult i64 %27, %28
  br i1 %29, label %lean_dec.exit23, label %30

30:                                               ; preds = %26
  %31 = sub nuw nsw i64 %27, %28
  %32 = shl nuw i64 %31, 1
  %33 = or disjoint i64 %32, 1
  %34 = inttoptr i64 %33 to ptr
  br label %lean_dec.exit23

lean_nat_sub.exit:                                ; preds = %lean_inc.exit25
  %35 = tail call ptr @lean_nat_big_sub(ptr noundef %17, ptr noundef %20) #4
  br i1 %23, label %36, label %lean_dec.exit24.thread

36:                                               ; preds = %lean_nat_sub.exit.thread43, %lean_nat_sub.exit
  %37 = phi ptr [ %25, %lean_nat_sub.exit.thread43 ], [ %35, %lean_nat_sub.exit ]
  %38 = load i32, ptr %20, align 4, !tbaa !4
  %39 = icmp sgt i32 %38, 1
  br i1 %39, label %40, label %42, !prof !11

40:                                               ; preds = %36
  %41 = add nsw i32 %38, -1
  store i32 %41, ptr %20, align 4, !tbaa !4
  br label %lean_dec.exit24

42:                                               ; preds = %36
  %.not.i = icmp eq i32 %38, 0
  br i1 %.not.i, label %lean_dec.exit24, label %43

43:                                               ; preds = %42
  tail call void @lean_dec_ref_cold(ptr noundef nonnull %20) #4
  br label %lean_dec.exit24

lean_dec.exit24:                                  ; preds = %43, %42, %40
  br i1 %.not34, label %lean_dec.exit24.thread, label %lean_dec.exit23

lean_dec.exit24.thread:                           ; preds = %lean_nat_sub.exit, %lean_dec.exit24
  %.1.i4247 = phi ptr [ %37, %lean_dec.exit24 ], [ %35, %lean_nat_sub.exit ]
  %44 = load i32, ptr %17, align 4, !tbaa !4
  %45 = icmp sgt i32 %44, 1
  br i1 %45, label %46, label %48, !prof !11

46:                                               ; preds = %lean_dec.exit24.thread
  %47 = add nsw i32 %44, -1
  store i32 %47, ptr %17, align 4, !tbaa !4
  br label %lean_dec.exit23

48:                                               ; preds = %lean_dec.exit24.thread
  %.not.i26 = icmp eq i32 %44, 0
  br i1 %.not.i26, label %lean_dec.exit23, label %49

49:                                               ; preds = %48
  tail call void @lean_dec_ref_cold(ptr noundef nonnull %17) #4
  br label %lean_dec.exit23

lean_dec.exit23:                                  ; preds = %26, %30, %49, %48, %46, %lean_dec.exit24
  %.1.i4246 = phi ptr [ %.1.i4247, %49 ], [ %.1.i4247, %48 ], [ %.1.i4247, %46 ], [ %37, %lean_dec.exit24 ], [ %34, %30 ], [ inttoptr (i64 1 to ptr), %26 ]
  %50 = tail call ptr @lean_array_mk(ptr noundef %0) #4
  br i1 %.not, label %51, label %lean_inc.exit

51:                                               ; preds = %lean_dec.exit23
  %.val.i31 = load i32, ptr %8, align 4, !tbaa !4
  %52 = icmp sgt i32 %.val.i31, 0
  br i1 %52, label %53, label %55, !prof !11

53:                                               ; preds = %51
  %54 = add nuw i32 %.val.i31, 1
  store i32 %54, ptr %8, align 4, !tbaa !4
  br label %58

55:                                               ; preds = %51
  %.not.i32 = icmp eq i32 %.val.i31, 0
  br i1 %.not.i32, label %58, label %56

56:                                               ; preds = %55
  tail call void @lean_inc_ref_cold(ptr noundef nonnull %8) #4
  br label %58

lean_inc.exit:                                    ; preds = %lean_dec.exit23
  %57 = tail call ptr @l_List_takeTR_go___rarg(ptr noundef %8, ptr noundef %8, ptr noundef %.1.i4246, ptr noundef %50) #4
  br label %lean_dec.exit

58:                                               ; preds = %56, %55, %53
  %59 = tail call ptr @l_List_takeTR_go___rarg(ptr noundef nonnull %8, ptr noundef nonnull %8, ptr noundef %.1.i4246, ptr noundef %50) #4
  %60 = load i32, ptr %8, align 4, !tbaa !4
  %61 = icmp sgt i32 %60, 1
  br i1 %61, label %62, label %64, !prof !11

62:                                               ; preds = %58
  %63 = add nsw i32 %60, -1
  store i32 %63, ptr %8, align 4, !tbaa !4
  br label %lean_dec.exit

64:                                               ; preds = %58
  %.not.i28 = icmp eq i32 %60, 0
  br i1 %.not.i28, label %lean_dec.exit, label %65

65:                                               ; preds = %64
  tail call void @lean_dec_ref_cold(ptr noundef nonnull %8) #4
  br label %lean_dec.exit

lean_dec.exit:                                    ; preds = %65, %64, %62, %lean_inc.exit
  %66 = phi ptr [ %57, %lean_inc.exit ], [ %59, %62 ], [ %59, %64 ], [ %59, %65 ]
  %67 = tail call ptr @l_List_foldl___at_Lean_Compiler_LCNF_initFn____x40_Lean_Compiler_LCNF_AuxDeclCache___hyg_3____spec__9(ptr noundef %1, ptr noundef nonnull %3, ptr noundef %5, ptr noundef %66)
  ret ptr %67
}